target datalayout = "e-m:e-p270:32:32-p271:32:32-p272:64:64-i64:64-i128:128-f80:128-n8:16:32:64-S128"
target triple = "x86_64-pc-linux-gnu"

%struct.TmToChar = type { %struct.fmt_tm, i32, ptr }
%struct.fmt_tm = type { i32, i32, i64, i32, i32, i32, i32, i32, i64 }
%struct.pg_tm = type { i32, i32, i32, i32, i32, i32, i32, i32, i32, i64, ptr }
%struct.FunctionCallInfoBaseData = type { ptr, ptr, ptr, i32, i8, i16, [0 x %struct.NullableDatum] }
%struct.NullableDatum = type { i64, i8 }
%struct.varattrib_1b = type { i8, [0 x i8] }
%struct.varattrib_1b_e = type { i8, i8, [0 x i8] }
%struct.anon.1 = type { i32, [0 x i8] }

@.str.3 = private unnamed_addr constant [13 x i8] c"formatting.c\00", align 1
@.str.7 = private unnamed_addr constant [23 x i8] c"timestamp out of range\00", align 1
@__func__.timestamp_to_char = private unnamed_addr constant [18 x i8] c"timestamp_to_char\00", align 1

; Function Attrs: inlinehint nounwind uwtable
define internal i64 @DatumGetInt64(i64 noundef %0) #4 {
  %2 = alloca i64, align 8
  store i64 %0, ptr %2, align 8
  %3 = load i64, ptr %2, align 8
  ret i64 %3
}

; Function Attrs: inlinehint nounwind uwtable
define internal i64 @PointerGetDatum(ptr noundef %0) #4 {
  %2 = alloca ptr, align 8
  store ptr %0, ptr %2, align 8
  %3 = load ptr, ptr %2, align 8
  %4 = ptrtoint ptr %3 to i64
  ret i64 %4
}

; Function Attrs: inlinehint nounwind uwtable
define internal ptr @DatumGetPointer(i64 noundef %0) #4 {
  %2 = alloca i64, align 8
  store i64 %0, ptr %2, align 8
  %3 = load i64, ptr %2, align 8
  %4 = inttoptr i64 %3 to ptr
  ret ptr %4
}

; Function Attrs: inlinehint nounwind uwtable
define internal i64 @DatumGetTimestamp(i64 noundef %0) #4 {
  %2 = alloca i64, align 8
  store i64 %0, ptr %2, align 8
  %3 = load i64, ptr %2, align 8
  %4 = call i64 @DatumGetInt64(i64 noundef %3)
  ret i64 %4
}

; Function Attrs: nounwind uwtable
define dso_local i64 @timestamp_to_char(ptr noundef %0) #0 {
  %2 = alloca i64, align 8
  %3 = alloca ptr, align 8
  %4 = alloca i64, align 8
  %5 = alloca ptr, align 8
  %6 = alloca ptr, align 8
  %7 = alloca %struct.TmToChar, align 8
  %8 = alloca %struct.pg_tm, align 8
  %9 = alloca ptr, align 8
  %10 = alloca i32, align 4
  %11 = alloca i32, align 4
  store ptr %0, ptr %3, align 8
  call void @llvm.lifetime.start.p0(i64 8, ptr %4) #11
  %12 = load ptr, ptr %3, align 8
  %13 = getelementptr inbounds nuw %struct.FunctionCallInfoBaseData, ptr %12, i32 0, i32 6
  %14 = getelementptr inbounds [0 x %struct.NullableDatum], ptr %13, i64 0, i64 0
  %15 = getelementptr inbounds nuw %struct.NullableDatum, ptr %14, i32 0, i32 0
  %16 = load i64, ptr %15, align 8
  %17 = call i64 @DatumGetTimestamp(i64 noundef %16)
  store i64 %17, ptr %4, align 8
  call void @llvm.lifetime.start.p0(i64 8, ptr %5) #11
  %18 = load ptr, ptr %3, align 8
  %19 = getelementptr inbounds nuw %struct.FunctionCallInfoBaseData, ptr %18, i32 0, i32 6
  %20 = getelementptr inbounds [0 x %struct.NullableDatum], ptr %19, i64 0, i64 1
  %21 = getelementptr inbounds nuw %struct.NullableDatum, ptr %20, i32 0, i32 0
  %22 = load i64, ptr %21, align 8
  %23 = call ptr @DatumGetPointer(i64 noundef %22)
  %24 = call ptr @pg_detoast_datum_packed(ptr noundef %23)
  store ptr %24, ptr %5, align 8
  call void @llvm.lifetime.start.p0(i64 8, ptr %6) #11
  call void @llvm.lifetime.start.p0(i64 64, ptr %7) #11
  call void @llvm.lifetime.start.p0(i64 56, ptr %8) #11
  call void @llvm.lifetime.start.p0(i64 8, ptr %9) #11
  call void @llvm.lifetime.start.p0(i64 4, ptr %10) #11
  %25 = load ptr, ptr %5, align 8
  %26 = getelementptr inbounds nuw %struct.varattrib_1b, ptr %25, i32 0, i32 0
  %27 = load i8, ptr %26, align 1
  %28 = zext i8 %27 to i32
  %29 = icmp eq i32 %28, 1
  br i1 %29, label %30, label %58

30:                                               ; preds = %1
  %31 = load ptr, ptr %5, align 8
  %32 = getelementptr inbounds nuw %struct.varattrib_1b_e, ptr %31, i32 0, i32 1
  %33 = load i8, ptr %32, align 1
  %34 = zext i8 %33 to i32
  %35 = icmp eq i32 %34, 1
  br i1 %35, label %36, label %37

36:                                               ; preds = %30
  br label %54

37:                                               ; preds = %30
  %38 = load ptr, ptr %5, align 8
  %39 = getelementptr inbounds nuw %struct.varattrib_1b_e, ptr %38, i32 0, i32 1
  %40 = load i8, ptr %39, align 1
  %41 = zext i8 %40 to i32
  %42 = and i32 %41, -2
  %43 = icmp eq i32 %42, 2
  br i1 %43, label %44, label %45

44:                                               ; preds = %37
  br label %52

45:                                               ; preds = %37
  %46 = load ptr, ptr %5, align 8
  %47 = getelementptr inbounds nuw %struct.varattrib_1b_e, ptr %46, i32 0, i32 1
  %48 = load i8, ptr %47, align 1
  %49 = zext i8 %48 to i32
  %50 = icmp eq i32 %49, 18
  %51 = select i1 %50, i64 16, i64 0
  br label %52

52:                                               ; preds = %45, %44
  %53 = phi i64 [ 8, %44 ], [ %51, %45 ]
  br label %54

54:                                               ; preds = %52, %36
  %55 = phi i64 [ 8, %36 ], [ %53, %52 ]
  %56 = add i64 2, %55
  %57 = sub i64 %56, 2
  br label %84

58:                                               ; preds = %1
  %59 = load ptr, ptr %5, align 8
  %60 = getelementptr inbounds nuw %struct.varattrib_1b, ptr %59, i32 0, i32 0
  %61 = load i8, ptr %60, align 1
  %62 = zext i8 %61 to i32
  %63 = and i32 %62, 1
  %64 = icmp eq i32 %63, 1
  br i1 %64, label %65, label %74

65:                                               ; preds = %58
  %66 = load ptr, ptr %5, align 8
  %67 = getelementptr inbounds nuw %struct.varattrib_1b, ptr %66, i32 0, i32 0
  %68 = load i8, ptr %67, align 1
  %69 = zext i8 %68 to i32
  %70 = ashr i32 %69, 1
  %71 = and i32 %70, 127
  %72 = sext i32 %71 to i64
  %73 = sub i64 %72, 1
  br label %82

74:                                               ; preds = %58
  %75 = load ptr, ptr %5, align 8
  %76 = getelementptr inbounds nuw %struct.anon.1, ptr %75, i32 0, i32 0
  %77 = load i32, ptr %76, align 4
  %78 = lshr i32 %77, 2
  %79 = and i32 %78, 1073741823
  %80 = sub i32 %79, 4
  %81 = zext i32 %80 to i64
  br label %82

82:                                               ; preds = %74, %65
  %83 = phi i64 [ %73, %65 ], [ %81, %74 ]
  br label %84

84:                                               ; preds = %82, %54
  %85 = phi i64 [ %57, %54 ], [ %83, %82 ]
  %86 = icmp ule i64 %85, 0
  br i1 %86, label %93, label %87

87:                                               ; preds = %84
  %88 = load i64, ptr %4, align 8
  %89 = icmp eq i64 %88, -9223372036854775808
  br i1 %89, label %93, label %90

90:                                               ; preds = %87
  %91 = load i64, ptr %4, align 8
  %92 = icmp eq i64 %91, 9223372036854775807
  br i1 %92, label %93, label %99

93:                                               ; preds = %90, %87, %84
  br label %94

94:                                               ; preds = %93
  %95 = load ptr, ptr %3, align 8
  %96 = getelementptr inbounds nuw %struct.FunctionCallInfoBaseData, ptr %95, i32 0, i32 4
  store i8 1, ptr %96, align 4
  store i64 0, ptr %2, align 8
  store i32 1, ptr %11, align 4
  br label %204

97:                                               ; No predecessors!
  br label %98

98:                                               ; preds = %97
  br label %99

99:                                               ; preds = %98, %90
  br label %100

100:                                              ; preds = %99
  br label %101

101:                                              ; preds = %100
  %102 = getelementptr inbounds nuw %struct.TmToChar, ptr %7, i32 0, i32 0
  call void @llvm.memset.p0.i64(ptr align 8 %102, i8 0, i64 48, i1 false)
  %103 = getelementptr inbounds nuw %struct.TmToChar, ptr %7, i32 0, i32 0
  %104 = getelementptr inbounds nuw %struct.fmt_tm, ptr %103, i32 0, i32 4
  store i32 1, ptr %104, align 4
  %105 = getelementptr inbounds nuw %struct.TmToChar, ptr %7, i32 0, i32 0
  %106 = getelementptr inbounds nuw %struct.fmt_tm, ptr %105, i32 0, i32 3
  store i32 1, ptr %106, align 8
  br label %107

107:                                              ; preds = %101
  br label %108

108:                                              ; preds = %107
  %109 = getelementptr inbounds nuw %struct.TmToChar, ptr %7, i32 0, i32 1
  store i32 0, ptr %109, align 8
  %110 = getelementptr inbounds nuw %struct.TmToChar, ptr %7, i32 0, i32 2
  store ptr null, ptr %110, align 8
  br label %111

111:                                              ; preds = %108
  br label %112

112:                                              ; preds = %111
  %113 = getelementptr inbounds nuw %struct.TmToChar, ptr %7, i32 0, i32 0
  store ptr %113, ptr %9, align 8
  %114 = load i64, ptr %4, align 8
  %115 = getelementptr inbounds nuw %struct.TmToChar, ptr %7, i32 0, i32 1
  %116 = call i32 @timestamp2tm(i64 noundef %114, ptr noundef null, ptr noundef %8, ptr noundef %115, ptr noundef null, ptr noundef null)
  %117 = icmp ne i32 %116, 0
  br i1 %117, label %118, label %130

118:                                              ; preds = %112
  br label %119

119:                                              ; preds = %118
  br i1 true, label %120, label %122

120:                                              ; preds = %119
  %121 = call zeroext i1 @errstart_cold(i32 noundef 21, ptr noundef null) #12
  br i1 %121, label %124, label %127

122:                                              ; preds = %119
  %123 = call zeroext i1 @errstart(i32 noundef 21, ptr noundef null)
  br i1 %123, label %124, label %127

124:                                              ; preds = %122, %120
  %125 = call i32 @errcode(i32 noundef 134217858)
  %126 = call i32 (ptr, ...) @errmsg(ptr noundef @.str.7)
  call void @errfinish(ptr noundef @.str.3, i32 noundef 4016, ptr noundef @__func__.timestamp_to_char)
  br label %127

127:                                              ; preds = %124, %122, %120
  unreachable

128:                                              ; No predecessors!
  br label %129

129:                                              ; preds = %128
  br label %130

130:                                              ; preds = %129, %112
  %131 = getelementptr inbounds nuw %struct.pg_tm, ptr %8, i32 0, i32 5
  %132 = load i32, ptr %131, align 4
  %133 = getelementptr inbounds nuw %struct.pg_tm, ptr %8, i32 0, i32 4
  %134 = load i32, ptr %133, align 8
  %135 = getelementptr inbounds nuw %struct.pg_tm, ptr %8, i32 0, i32 3
  %136 = load i32, ptr %135, align 4
  %137 = call i32 @date2j(i32 noundef %132, i32 noundef %134, i32 noundef %136)
  store i32 %137, ptr %10, align 4
  %138 = load i32, ptr %10, align 4
  %139 = add i32 %138, 1
  %140 = srem i32 %139, 7
  %141 = getelementptr inbounds nuw %struct.pg_tm, ptr %8, i32 0, i32 6
  store i32 %140, ptr %141, align 8
  %142 = load i32, ptr %10, align 4
  %143 = getelementptr inbounds nuw %struct.pg_tm, ptr %8, i32 0, i32 5
  %144 = load i32, ptr %143, align 4
  %145 = call i32 @date2j(i32 noundef %144, i32 noundef 1, i32 noundef 1)
  %146 = sub i32 %142, %145
  %147 = add i32 %146, 1
  %148 = getelementptr inbounds nuw %struct.pg_tm, ptr %8, i32 0, i32 7
  store i32 %147, ptr %148, align 4
  br label %149

149:                                              ; preds = %130
  %150 = getelementptr inbounds nuw %struct.pg_tm, ptr %8, i32 0, i32 0
  %151 = load i32, ptr %150, align 8
  %152 = load ptr, ptr %9, align 8
  %153 = getelementptr inbounds nuw %struct.fmt_tm, ptr %152, i32 0, i32 0
  store i32 %151, ptr %153, align 8
  %154 = getelementptr inbounds nuw %struct.pg_tm, ptr %8, i32 0, i32 1
  %155 = load i32, ptr %154, align 4
  %156 = load ptr, ptr %9, align 8
  %157 = getelementptr inbounds nuw %struct.fmt_tm, ptr %156, i32 0, i32 1
  store i32 %155, ptr %157, align 4
  %158 = getelementptr inbounds nuw %struct.pg_tm, ptr %8, i32 0, i32 2
  %159 = load i32, ptr %158, align 8
  %160 = sext i32 %159 to i64
  %161 = load ptr, ptr %9, align 8
  %162 = getelementptr inbounds nuw %struct.fmt_tm, ptr %161, i32 0, i32 2
  store i64 %160, ptr %162, align 8
  %163 = getelementptr inbounds nuw %struct.pg_tm, ptr %8, i32 0, i32 3
  %164 = load i32, ptr %163, align 4
  %165 = load ptr, ptr %9, align 8
  %166 = getelementptr inbounds nuw %struct.fmt_tm, ptr %165, i32 0, i32 3
  store i32 %164, ptr %166, align 8
  %167 = getelementptr inbounds nuw %struct.pg_tm, ptr %8, i32 0, i32 4
  %168 = load i32, ptr %167, align 8
  %169 = load ptr, ptr %9, align 8
  %170 = getelementptr inbounds nuw %struct.fmt_tm, ptr %169, i32 0, i32 4
  store i32 %168, ptr %170, align 4
  %171 = getelementptr inbounds nuw %struct.pg_tm, ptr %8, i32 0, i32 5
  %172 = load i32, ptr %171, align 4
  %173 = load ptr, ptr %9, align 8
  %174 = getelementptr inbounds nuw %struct.fmt_tm, ptr %173, i32 0, i32 5
  store i32 %172, ptr %174, align 8
  %175 = getelementptr inbounds nuw %struct.pg_tm, ptr %8, i32 0, i32 6
  %176 = load i32, ptr %175, align 8
  %177 = load ptr, ptr %9, align 8
  %178 = getelementptr inbounds nuw %struct.fmt_tm, ptr %177, i32 0, i32 6
  store i32 %176, ptr %178, align 4
  %179 = getelementptr inbounds nuw %struct.pg_tm, ptr %8, i32 0, i32 7
  %180 = load i32, ptr %179, align 4
  %181 = load ptr, ptr %9, align 8
  %182 = getelementptr inbounds nuw %struct.fmt_tm, ptr %181, i32 0, i32 7
  store i32 %180, ptr %182, align 8
  %183 = getelementptr inbounds nuw %struct.pg_tm, ptr %8, i32 0, i32 9
  %184 = load i64, ptr %183, align 8
  %185 = load ptr, ptr %9, align 8
  %186 = getelementptr inbounds nuw %struct.fmt_tm, ptr %185, i32 0, i32 8
  store i64 %184, ptr %186, align 8
  br label %187

187:                                              ; preds = %149
  br label %188

188:                                              ; preds = %187
  %189 = load ptr, ptr %5, align 8
  %190 = load ptr, ptr %3, align 8
  %191 = getelementptr inbounds nuw %struct.FunctionCallInfoBaseData, ptr %190, i32 0, i32 3
  %192 = load i32, ptr %191, align 8
  %193 = call ptr @datetime_to_char_body(ptr noundef %7, ptr noundef %189, i1 noundef zeroext false, i32 noundef %192)
  store ptr %193, ptr %6, align 8
  %194 = icmp ne ptr %193, null
  br i1 %194, label %201, label %195

195:                                              ; preds = %188
  br label %196

196:                                              ; preds = %195
  %197 = load ptr, ptr %3, align 8
  %198 = getelementptr inbounds nuw %struct.FunctionCallInfoBaseData, ptr %197, i32 0, i32 4
  store i8 1, ptr %198, align 4
  store i64 0, ptr %2, align 8
  store i32 1, ptr %11, align 4
  br label %204

199:                                              ; No predecessors!
  br label %200

200:                                              ; preds = %199
  br label %201

201:                                              ; preds = %200, %188
  %202 = load ptr, ptr %6, align 8
  %203 = call i64 @PointerGetDatum(ptr noundef %202)
  store i64 %203, ptr %2, align 8
  store i32 1, ptr %11, align 4
  br label %204

204:                                              ; preds = %201, %196, %94
  call void @llvm.lifetime.end.p0(i64 4, ptr %10) #11
  call void @llvm.lifetime.end.p0(i64 8, ptr %9) #11
  call void @llvm.lifetime.end.p0(i64 56, ptr %8) #11
  call void @llvm.lifetime.end.p0(i64 64, ptr %7) #11
  call void @llvm.lifetime.end.p0(i64 8, ptr %6) #11
  call void @llvm.lifetime.end.p0(i64 8, ptr %5) #11
  call void @llvm.lifetime.end.p0(i64 8, ptr %4) #11
  %205 = load i64, ptr %2, align 8
  ret i64 %205
}