; Function Attrs: nounwind uwtable
define dso_local i64 @timestamp_to_char(ptr noundef captures(none) %0) local_unnamed_addr #0 {
  %2 = alloca %struct.TmToChar, align 8
  %3 = alloca %struct.pg_tm, align 8
  %4 = getelementptr inbounds nuw i8, ptr %0, i64 32
  %5 = load i64, ptr %4, align 8
  %6 = getelementptr inbounds nuw i8, ptr %0, i64 48
  %7 = load i64, ptr %6, align 8
  %8 = inttoptr i64 %7 to ptr
  %9 = tail call ptr @pg_detoast_datum_packed(ptr noundef %8) #18
  call void @llvm.lifetime.start.p0(i64 64, ptr nonnull %2) #18
  call void @llvm.lifetime.start.p0(i64 56, ptr nonnull %3) #18
  %10 = load i8, ptr %9, align 1
  %11 = zext i8 %10 to i32
  %12 = icmp eq i8 %10, 1
  br i1 %12, label %13, label %22

13:                                               ; preds = %1
  %14 = getelementptr inbounds nuw i8, ptr %9, i64 1
  %15 = load i8, ptr %14, align 1
  %16 = icmp eq i8 %15, 1
  %17 = and i8 %15, -2
  %18 = icmp eq i8 %17, 2
  %or.cond = or i1 %16, %18
  %19 = icmp eq i8 %15, 18
  %20 = select i1 %19, i64 16, i64 0
  %21 = select i1 %or.cond, i64 8, i64 %20
  br label %33

22:                                               ; preds = %1
  %23 = and i32 %11, 1
  %.not = icmp eq i32 %23, 0
  br i1 %.not, label %28, label %24

24:                                               ; preds = %22
  %25 = lshr i32 %11, 1
  %26 = zext nneg i32 %25 to i64
  %27 = add nsw i64 %26, -1
  br label %33

28:                                               ; preds = %22
  %29 = load i32, ptr %9, align 4
  %30 = lshr i32 %29, 2
  %31 = add nsw i32 %30, -4
  %32 = zext i32 %31 to i64
  br label %33

33:                                               ; preds = %24, %28, %13
  %34 = phi i64 [ %21, %13 ], [ %27, %24 ], [ %32, %28 ]
  %35 = icmp eq i64 %34, 0
  %36 = add i64 %5, -9223372036854775807
  %37 = icmp ult i64 %36, 2
  %or.cond3 = select i1 %35, i1 true, i1 %37
  br i1 %or.cond3, label %38, label %40

38:                                               ; preds = %33
  %39 = getelementptr inbounds nuw i8, ptr %0, i64 28
  store i8 1, ptr %39, align 4
  br label %91

40:                                               ; preds = %33
  call void @llvm.memset.p0.i64(ptr noundef nonnull align 8 dereferenceable(48) %2, i8 0, i64 48, i1 false)
  %41 = getelementptr inbounds nuw i8, ptr %2, i64 20
  store i32 1, ptr %41, align 4
  %42 = getelementptr inbounds nuw i8, ptr %2, i64 16
  store i32 1, ptr %42, align 8
  %43 = getelementptr inbounds nuw i8, ptr %2, i64 48
  store i32 0, ptr %43, align 8
  %44 = getelementptr inbounds nuw i8, ptr %2, i64 56
  store ptr null, ptr %44, align 8
  %45 = call i32 @timestamp2tm(i64 noundef %5, ptr noundef null, ptr noundef nonnull %3, ptr noundef nonnull %43, ptr noundef null, ptr noundef null) #18
  %.not35 = icmp eq i32 %45, 0
  br i1 %.not35, label %50, label %46

46:                                               ; preds = %40
  %47 = call zeroext i1 @errstart_cold(i32 noundef 21, ptr noundef null) #17
  call void @llvm.assume(i1 %47)
  %48 = call i32 @errcode(i32 noundef 134217858) #18
  %49 = call i32 (ptr, ...) @errmsg(ptr noundef nonnull @.str.7) #18
  call void @errfinish(ptr noundef nonnull @.str.3, i32 noundef 4016, ptr noundef nonnull @__func__.timestamp_to_char) #18
  unreachable

50:                                               ; preds = %40
  %51 = getelementptr inbounds nuw i8, ptr %3, i64 20
  %52 = load i32, ptr %51, align 4
  %53 = getelementptr inbounds nuw i8, ptr %3, i64 16
  %54 = load i32, ptr %53, align 8
  %55 = getelementptr inbounds nuw i8, ptr %3, i64 12
  %56 = load i32, ptr %55, align 4
  %57 = call i32 @date2j(i32 noundef %52, i32 noundef %54, i32 noundef %56) #18
  %58 = add i32 %57, 1
  %59 = srem i32 %58, 7
  %60 = getelementptr inbounds nuw i8, ptr %3, i64 24
  store i32 %59, ptr %60, align 8
  %61 = load i32, ptr %51, align 4
  %62 = call i32 @date2j(i32 noundef %61, i32 noundef 1, i32 noundef 1) #18
  %63 = sub i32 %57, %62
  %64 = add i32 %63, 1
  %65 = getelementptr inbounds nuw i8, ptr %3, i64 28
  store i32 %64, ptr %65, align 4
  %66 = load i32, ptr %3, align 8
  store i32 %66, ptr %2, align 8
  %67 = getelementptr inbounds nuw i8, ptr %3, i64 4
  %68 = load i32, ptr %67, align 4
  %69 = getelementptr inbounds nuw i8, ptr %2, i64 4
  store i32 %68, ptr %69, align 4
  %70 = getelementptr inbounds nuw i8, ptr %3, i64 8
  %71 = load i32, ptr %70, align 8
  %72 = sext i32 %71 to i64
  %73 = getelementptr inbounds nuw i8, ptr %2, i64 8
  store i64 %72, ptr %73, align 8
  %74 = load i32, ptr %55, align 4
  store i32 %74, ptr %42, align 8
  %75 = load i32, ptr %53, align 8
  store i32 %75, ptr %41, align 4
  %76 = load i32, ptr %51, align 4
  %77 = getelementptr inbounds nuw i8, ptr %2, i64 24
  store i32 %76, ptr %77, align 8
  %78 = load i32, ptr %60, align 8
  %79 = getelementptr inbounds nuw i8, ptr %2, i64 28
  store i32 %78, ptr %79, align 4
  %80 = getelementptr inbounds nuw i8, ptr %2, i64 32
  store i32 %64, ptr %80, align 8
  %81 = getelementptr inbounds nuw i8, ptr %3, i64 40
  %82 = load i64, ptr %81, align 8
  %83 = getelementptr inbounds nuw i8, ptr %2, i64 40
  store i64 %82, ptr %83, align 8
  %84 = getelementptr inbounds nuw i8, ptr %0, i64 24
  %85 = load i32, ptr %84, align 8
  %86 = call fastcc ptr @datetime_to_char_body(ptr noundef %2, ptr noundef nonnull %9, i1 noundef zeroext false, i32 noundef %85)
  %.not36 = icmp eq ptr %86, null
  br i1 %.not36, label %87, label %89

87:                                               ; preds = %50
  %88 = getelementptr inbounds nuw i8, ptr %0, i64 28
  store i8 1, ptr %88, align 4
  br label %91

89:                                               ; preds = %50
  %90 = ptrtoint ptr %86 to i64
  br label %91

91:                                               ; preds = %89, %87, %38
  %.0 = phi i64 [ 0, %38 ], [ %90, %89 ], [ 0, %87 ]
  call void @llvm.lifetime.end.p0(i64 56, ptr nonnull %3) #18
  call void @llvm.lifetime.end.p0(i64 64, ptr nonnull %2) #18
  ret i64 %.0
}